target datalayout = "e-m:e-p270:32:32-p271:32:32-p272:64:64-i64:64-i128:128-f80:128-n8:16:32:64-S128"
target triple = "x86_64-pc-linux-gnu"

%struct._lv_obj_t = type { ptr, ptr, ptr, ptr, ptr, %struct.lv_area_t, i32, i16, i16 }
%struct.lv_area_t = type { i32, i32, i32, i32 }
%struct.lv_event_list_t = type { %struct._lv_array_t, i8 }
%struct._lv_array_t = type { ptr, i32, i32, i32, i8 }
%struct._lv_obj_spec_attr_t = type { ptr, ptr, %struct.lv_event_list_t, %struct.lv_point_t, i32, i32, i16, i16 }
%struct.lv_point_t = type { i32, i32 }

; Function Attrs: nounwind uwtable
define ptr @lv_obj_get_child_by_type(ptr noundef %0, i32 noundef %1, ptr noundef %2) #0 {
  %4 = alloca ptr, align 8
  %5 = alloca ptr, align 8
  %6 = alloca i32, align 4
  %7 = alloca ptr, align 8
  %8 = alloca i32, align 4
  %9 = alloca i32, align 4
  %10 = alloca i32, align 4
  store ptr %0, ptr %5, align 8, !tbaa !3
  store i32 %1, ptr %6, align 4, !tbaa !37
  store ptr %2, ptr %7, align 8, !tbaa !82
  br label %11

11:                                               ; preds = %3
  %12 = load ptr, ptr %5, align 8, !tbaa !3
  %13 = icmp ne ptr %12, null
  br i1 %13, label %18, label %14

14:                                               ; preds = %11
  br label %15

15:                                               ; preds = %14
  br label %16

16:                                               ; preds = %15
  br label %17

17:                                               ; preds = %16, %17
  br label %17

18:                                               ; preds = %11
  br label %19

19:                                               ; preds = %18
  %20 = load ptr, ptr %5, align 8, !tbaa !3
  %21 = getelementptr inbounds nuw %struct._lv_obj_t, ptr %20, i32 0, i32 2
  %22 = load ptr, ptr %21, align 8, !tbaa !43
  %23 = icmp eq ptr %22, null
  br i1 %23, label %24, label %25

24:                                               ; preds = %19
  store ptr null, ptr %4, align 8
  br label %121

25:                                               ; preds = %19
  call void @llvm.lifetime.start.p0(i64 4, ptr %8) #3
  call void @llvm.lifetime.start.p0(i64 4, ptr %9) #3
  %26 = load ptr, ptr %5, align 8, !tbaa !3
  %27 = getelementptr inbounds nuw %struct._lv_obj_t, ptr %26, i32 0, i32 2
  %28 = load ptr, ptr %27, align 8, !tbaa !43
  %29 = getelementptr inbounds nuw %struct._lv_obj_spec_attr_t, ptr %28, i32 0, i32 6
  %30 = load i16, ptr %29, align 8, !tbaa !64
  %31 = zext i16 %30 to i32
  store i32 %31, ptr %9, align 4, !tbaa !37
  %32 = load i32, ptr %6, align 4, !tbaa !37
  %33 = icmp sge i32 %32, 0
  br i1 %33, label %34, label %75

34:                                               ; preds = %25
  store i32 0, ptr %8, align 4, !tbaa !37
  br label %35

35:                                               ; preds = %71, %34
  %36 = load i32, ptr %8, align 4, !tbaa !37
  %37 = load i32, ptr %9, align 4, !tbaa !37
  %38 = icmp slt i32 %36, %37
  br i1 %38, label %39, label %74

39:                                               ; preds = %35
  %40 = load ptr, ptr %5, align 8, !tbaa !3
  %41 = getelementptr inbounds nuw %struct._lv_obj_t, ptr %40, i32 0, i32 2
  %42 = load ptr, ptr %41, align 8, !tbaa !43
  %43 = getelementptr inbounds nuw %struct._lv_obj_spec_attr_t, ptr %42, i32 0, i32 0
  %44 = load ptr, ptr %43, align 8, !tbaa !66
  %45 = load i32, ptr %8, align 4, !tbaa !37
  %46 = sext i32 %45 to i64
  %47 = getelementptr inbounds ptr, ptr %44, i64 %46
  %48 = load ptr, ptr %47, align 8, !tbaa !3
  %49 = getelementptr inbounds nuw %struct._lv_obj_t, ptr %48, i32 0, i32 0
  %50 = load ptr, ptr %49, align 8, !tbaa !83
  %51 = load ptr, ptr %7, align 8, !tbaa !82
  %52 = icmp eq ptr %50, %51
  br i1 %52, label %53, label %70

53:                                               ; preds = %39
  %54 = load i32, ptr %6, align 4, !tbaa !37
  %55 = icmp eq i32 %54, 0
  br i1 %55, label %56, label %66

56:                                               ; preds = %53
  %57 = load ptr, ptr %5, align 8, !tbaa !3
  %58 = getelementptr inbounds nuw %struct._lv_obj_t, ptr %57, i32 0, i32 2
  %59 = load ptr, ptr %58, align 8, !tbaa !43
  %60 = getelementptr inbounds nuw %struct._lv_obj_spec_attr_t, ptr %59, i32 0, i32 0
  %61 = load ptr, ptr %60, align 8, !tbaa !66
  %62 = load i32, ptr %8, align 4, !tbaa !37
  %63 = sext i32 %62 to i64
  %64 = getelementptr inbounds ptr, ptr %61, i64 %63
  %65 = load ptr, ptr %64, align 8, !tbaa !3
  store ptr %65, ptr %4, align 8
  store i32 1, ptr %10, align 4
  br label %120

66:                                               ; preds = %53
  %67 = load i32, ptr %6, align 4, !tbaa !37
  %68 = add nsw i32 %67, -1
  store i32 %68, ptr %6, align 4, !tbaa !37
  br label %69

69:                                               ; preds = %66
  br label %70

70:                                               ; preds = %69, %39
  br label %71

71:                                               ; preds = %70
  %72 = load i32, ptr %8, align 4, !tbaa !37
  %73 = add nsw i32 %72, 1
  store i32 %73, ptr %8, align 4, !tbaa !37
  br label %35, !llvm.loop !84

74:                                               ; preds = %35
  br label %119

75:                                               ; preds = %25
  %76 = load i32, ptr %6, align 4, !tbaa !37
  %77 = add nsw i32 %76, 1
  store i32 %77, ptr %6, align 4, !tbaa !37
  %78 = load i32, ptr %9, align 4, !tbaa !37
  %79 = sub nsw i32 %78, 1
  store i32 %79, ptr %8, align 4, !tbaa !37
  br label %80

80:                                               ; preds = %115, %75
  %81 = load i32, ptr %8, align 4, !tbaa !37
  %82 = icmp sge i32 %81, 0
  br i1 %82, label %83, label %118

83:                                               ; preds = %80
  %84 = load ptr, ptr %5, align 8, !tbaa !3
  %85 = getelementptr inbounds nuw %struct._lv_obj_t, ptr %84, i32 0, i32 2
  %86 = load ptr, ptr %85, align 8, !tbaa !43
  %87 = getelementptr inbounds nuw %struct._lv_obj_spec_attr_t, ptr %86, i32 0, i32 0
  %88 = load ptr, ptr %87, align 8, !tbaa !66
  %89 = load i32, ptr %8, align 4, !tbaa !37
  %90 = sext i32 %89 to i64
  %91 = getelementptr inbounds ptr, ptr %88, i64 %90
  %92 = load ptr, ptr %91, align 8, !tbaa !3
  %93 = getelementptr inbounds nuw %struct._lv_obj_t, ptr %92, i32 0, i32 0
  %94 = load ptr, ptr %93, align 8, !tbaa !83
  %95 = load ptr, ptr %7, align 8, !tbaa !82
  %96 = icmp eq ptr %94, %95
  br i1 %96, label %97, label %114

97:                                               ; preds = %83
  %98 = load i32, ptr %6, align 4, !tbaa !37
  %99 = icmp eq i32 %98, 0
  br i1 %99, label %100, label %110

100:                                              ; preds = %97
  %101 = load ptr, ptr %5, align 8, !tbaa !3
  %102 = getelementptr inbounds nuw %struct._lv_obj_t, ptr %101, i32 0, i32 2
  %103 = load ptr, ptr %102, align 8, !tbaa !43
  %104 = getelementptr inbounds nuw %struct._lv_obj_spec_attr_t, ptr %103, i32 0, i32 0
  %105 = load ptr, ptr %104, align 8, !tbaa !66
  %106 = load i32, ptr %8, align 4, !tbaa !37
  %107 = sext i32 %106 to i64
  %108 = getelementptr inbounds ptr, ptr %105, i64 %107
  %109 = load ptr, ptr %108, align 8, !tbaa !3
  store ptr %109, ptr %4, align 8
  store i32 1, ptr %10, align 4
  br label %120

110:                                              ; preds = %97
  %111 = load i32, ptr %6, align 4, !tbaa !37
  %112 = add nsw i32 %111, 1
  store i32 %112, ptr %6, align 4, !tbaa !37
  br label %113

113:                                              ; preds = %110
  br label %114

114:                                              ; preds = %113, %83
  br label %115

115:                                              ; preds = %114
  %116 = load i32, ptr %8, align 4, !tbaa !37
  %117 = add nsw i32 %116, -1
  store i32 %117, ptr %8, align 4, !tbaa !37
  br label %80, !llvm.loop !85

118:                                              ; preds = %80
  br label %119

119:                                              ; preds = %118, %74
  store ptr null, ptr %4, align 8
  store i32 1, ptr %10, align 4
  br label %120

120:                                              ; preds = %119, %100, %56
  call void @llvm.lifetime.end.p0(i64 4, ptr %9) #3
  call void @llvm.lifetime.end.p0(i64 4, ptr %8) #3
  br label %121

121:                                              ; preds = %120, %24
  %122 = load ptr, ptr %4, align 8
  ret ptr %122
}

; Function Attrs: nounwind uwtable
define i32 @lv_obj_get_index_by_type(ptr noundef %0, ptr noundef %1) #0 {
  %3 = alloca i32, align 4
  %4 = alloca ptr, align 8
  %5 = alloca ptr, align 8
  %6 = alloca ptr, align 8
  %7 = alloca i32, align 4
  %8 = alloca i32, align 4
  %9 = alloca i32, align 4
  %10 = alloca ptr, align 8
  store ptr %0, ptr %4, align 8, !tbaa !3
  store ptr %1, ptr %5, align 8, !tbaa !82
  br label %11

11:                                               ; preds = %2
  %12 = load ptr, ptr %4, align 8, !tbaa !3
  %13 = icmp ne ptr %12, null
  br i1 %13, label %18, label %14

14:                                               ; preds = %11
  br label %15

15:                                               ; preds = %14
  br label %16

16:                                               ; preds = %15
  br label %17

17:                                               ; preds = %16, %17
  br label %17

18:                                               ; preds = %11
  br label %19

19:                                               ; preds = %18
  call void @llvm.lifetime.start.p0(i64 8, ptr %6) #3
  %20 = load ptr, ptr %4, align 8, !tbaa !3
  %21 = call ptr @lv_obj_get_parent(ptr noundef %20)
  store ptr %21, ptr %6, align 8, !tbaa !3
  %22 = load ptr, ptr %6, align 8, !tbaa !3
  %23 = icmp eq ptr %22, null
  br i1 %23, label %24, label %25

24:                                               ; preds = %19
  store i32 -1, ptr %3, align 4
  store i32 1, ptr %7, align 4
  br label %68

25:                                               ; preds = %19
  call void @llvm.lifetime.start.p0(i64 4, ptr %8) #3
  store i32 0, ptr %8, align 4, !tbaa !37
  call void @llvm.lifetime.start.p0(i64 4, ptr %9) #3
  store i32 0, ptr %9, align 4, !tbaa !37
  store i32 0, ptr %8, align 4, !tbaa !37
  br label %26

26:                                               ; preds = %63, %25
  %27 = load i32, ptr %8, align 4, !tbaa !37
  %28 = load ptr, ptr %6, align 8, !tbaa !3
  %29 = getelementptr inbounds nuw %struct._lv_obj_t, ptr %28, i32 0, i32 2
  %30 = load ptr, ptr %29, align 8, !tbaa !43
  %31 = getelementptr inbounds nuw %struct._lv_obj_spec_attr_t, ptr %30, i32 0, i32 6
  %32 = load i16, ptr %31, align 8, !tbaa !64
  %33 = zext i16 %32 to i32
  %34 = icmp ult i32 %27, %33
  br i1 %34, label %35, label %66

35:                                               ; preds = %26
  call void @llvm.lifetime.start.p0(i64 8, ptr %10) #3
  %36 = load ptr, ptr %6, align 8, !tbaa !3
  %37 = getelementptr inbounds nuw %struct._lv_obj_t, ptr %36, i32 0, i32 2
  %38 = load ptr, ptr %37, align 8, !tbaa !43
  %39 = getelementptr inbounds nuw %struct._lv_obj_spec_attr_t, ptr %38, i32 0, i32 0
  %40 = load ptr, ptr %39, align 8, !tbaa !66
  %41 = load i32, ptr %8, align 4, !tbaa !37
  %42 = zext i32 %41 to i64
  %43 = getelementptr inbounds nuw ptr, ptr %40, i64 %42
  %44 = load ptr, ptr %43, align 8, !tbaa !3
  store ptr %44, ptr %10, align 8, !tbaa !3
  %45 = load ptr, ptr %10, align 8, !tbaa !3
  %46 = getelementptr inbounds nuw %struct._lv_obj_t, ptr %45, i32 0, i32 0
  %47 = load ptr, ptr %46, align 8, !tbaa !83
  %48 = load ptr, ptr %5, align 8, !tbaa !82
  %49 = icmp eq ptr %47, %48
  br i1 %49, label %50, label %59

50:                                               ; preds = %35
  %51 = load ptr, ptr %10, align 8, !tbaa !3
  %52 = load ptr, ptr %4, align 8, !tbaa !3
  %53 = icmp eq ptr %51, %52
  br i1 %53, label %54, label %56

54:                                               ; preds = %50
  %55 = load i32, ptr %9, align 4, !tbaa !37
  store i32 %55, ptr %3, align 4
  store i32 1, ptr %7, align 4
  br label %60

56:                                               ; preds = %50
  %57 = load i32, ptr %9, align 4, !tbaa !37
  %58 = add i32 %57, 1
  store i32 %58, ptr %9, align 4, !tbaa !37
  br label %59

59:                                               ; preds = %56, %35
  store i32 0, ptr %7, align 4
  br label %60

60:                                               ; preds = %59, %54
  call void @llvm.lifetime.end.p0(i64 8, ptr %10) #3
  %61 = load i32, ptr %7, align 4
  switch i32 %61, label %67 [
    i32 0, label %62
  ]

62:                                               ; preds = %60
  br label %63

63:                                               ; preds = %62
  %64 = load i32, ptr %8, align 4, !tbaa !37
  %65 = add i32 %64, 1
  store i32 %65, ptr %8, align 4, !tbaa !37
  br label %26, !llvm.loop !86

66:                                               ; preds = %26
  store i32 -1, ptr %3, align 4
  store i32 1, ptr %7, align 4
  br label %67

67:                                               ; preds = %66, %60
  call void @llvm.lifetime.end.p0(i64 4, ptr %9) #3
  call void @llvm.lifetime.end.p0(i64 4, ptr %8) #3
  br label %68

68:                                               ; preds = %67, %24
  call void @llvm.lifetime.end.p0(i64 8, ptr %6) #3
  %69 = load i32, ptr %3, align 4
  ret i32 %69
}

; Function Attrs: nounwind uwtable
define ptr @lv_obj_get_parent(ptr noundef %0) #0 {
  %2 = alloca ptr, align 8
  %3 = alloca ptr, align 8
  store ptr %0, ptr %3, align 8, !tbaa !3
  %4 = load ptr, ptr %3, align 8, !tbaa !3
  %5 = icmp eq ptr %4, null
  br i1 %5, label %6, label %7

6:                                                ; preds = %1
  store ptr null, ptr %2, align 8
  br label %20

7:                                                ; preds = %1
  br label %8

8:                                                ; preds = %7
  %9 = load ptr, ptr %3, align 8, !tbaa !3
  %10 = icmp ne ptr %9, null
  br i1 %10, label %15, label %11

11:                                               ; preds = %8
  br label %12

12:                                               ; preds = %11
  br label %13

13:                                               ; preds = %12
  br label %14

14:                                               ; preds = %13, %14
  br label %14

15:                                               ; preds = %8
  br label %16

16:                                               ; preds = %15
  %17 = load ptr, ptr %3, align 8, !tbaa !3
  %18 = getelementptr inbounds nuw %struct._lv_obj_t, ptr %17, i32 0, i32 1
  %19 = load ptr, ptr %18, align 8, !tbaa !30
  store ptr %19, ptr %2, align 8
  br label %20

20:                                               ; preds = %16, %6
  %21 = load ptr, ptr %2, align 8
  ret ptr %21
}

; Function Attrs: nounwind uwtable
define ptr @lv_obj_get_sibling_by_type(ptr noundef %0, i32 noundef %1, ptr noundef %2) #0 {
  %4 = alloca ptr, align 8
  %5 = alloca ptr, align 8
  %6 = alloca i32, align 4
  %7 = alloca ptr, align 8
  %8 = alloca ptr, align 8
  %9 = alloca i32, align 4
  %10 = alloca i32, align 4
  store ptr %0, ptr %5, align 8, !tbaa !3
  store i32 %1, ptr %6, align 4, !tbaa !37
  store ptr %2, ptr %7, align 8, !tbaa !82
  br label %11

11:                                               ; preds = %3
  %12 = load ptr, ptr %5, align 8, !tbaa !3
  %13 = icmp ne ptr %12, null
  br i1 %13, label %18, label %14

14:                                               ; preds = %11
  br label %15

15:                                               ; preds = %14
  br label %16

16:                                               ; preds = %15
  br label %17

17:                                               ; preds = %16, %17
  br label %17

18:                                               ; preds = %11
  br label %19

19:                                               ; preds = %18
  call void @llvm.lifetime.start.p0(i64 8, ptr %8) #3
  %20 = load ptr, ptr %5, align 8, !tbaa !3
  %21 = call ptr @lv_obj_get_parent(ptr noundef %20)
  store ptr %21, ptr %8, align 8, !tbaa !3
  call void @llvm.lifetime.start.p0(i64 4, ptr %9) #3
  %22 = load ptr, ptr %5, align 8, !tbaa !3
  %23 = load ptr, ptr %7, align 8, !tbaa !82
  %24 = call i32 @lv_obj_get_index_by_type(ptr noundef %22, ptr noundef %23)
  %25 = load i32, ptr %6, align 4, !tbaa !37
  %26 = add nsw i32 %24, %25
  store i32 %26, ptr %9, align 4, !tbaa !37
  %27 = load i32, ptr %9, align 4, !tbaa !37
  %28 = icmp slt i32 %27, 0
  br i1 %28, label %29, label %30

29:                                               ; preds = %19
  store ptr null, ptr %4, align 8
  store i32 1, ptr %10, align 4
  br label %35

30:                                               ; preds = %19
  %31 = load ptr, ptr %8, align 8, !tbaa !3
  %32 = load i32, ptr %9, align 4, !tbaa !37
  %33 = load ptr, ptr %7, align 8, !tbaa !82
  %34 = call ptr @lv_obj_get_child_by_type(ptr noundef %31, i32 noundef %32, ptr noundef %33)
  store ptr %34, ptr %4, align 8
  store i32 1, ptr %10, align 4
  br label %35

35:                                               ; preds = %30, %29
  call void @llvm.lifetime.end.p0(i64 4, ptr %9) #3
  call void @llvm.lifetime.end.p0(i64 8, ptr %8) #3
  %36 = load ptr, ptr %4, align 8
  ret ptr %36
}