; Function Attrs: nofree norecurse nosync nounwind memory(read, inaccessiblemem: none) uwtable
define noundef ptr @lv_obj_get_sibling_by_type(ptr noundef readonly captures(address) %0, i32 noundef %1, ptr noundef readnone captures(address) %2) local_unnamed_addr #4 {
  %.not = icmp eq ptr %0, null
  br i1 %.not, label %.preheader, label %lv_obj_get_parent.exit.i

.preheader:                                       ; preds = %3, %.preheader
  br label %.preheader

lv_obj_get_parent.exit.i:                         ; preds = %3
  %4 = getelementptr inbounds nuw i8, ptr %0, i64 8
  %5 = load ptr, ptr %4, align 8, !tbaa !3
  %6 = icmp eq ptr %5, null
  br i1 %6, label %lv_obj_get_index_by_type.exit.thread21, label %.preheader27.i

.preheader27.i:                                   ; preds = %lv_obj_get_parent.exit.i
  %7 = getelementptr inbounds nuw i8, ptr %5, i64 16
  %8 = load ptr, ptr %7, align 8, !tbaa !37
  %9 = getelementptr inbounds nuw i8, ptr %8, i64 64
  %10 = load i16, ptr %9, align 8, !tbaa !38
  %.not32.i = icmp eq i16 %10, 0
  br i1 %.not32.i, label %lv_obj_get_index_by_type.exit.thread, label %.lr.ph.i

.lr.ph.i:                                         ; preds = %.preheader27.i
  %11 = load ptr, ptr %8, align 8, !tbaa !42
  %wide.trip.count.i = zext i16 %10 to i64
  br label %12

12:                                               ; preds = %21, %.lr.ph.i
  %indvars.iv.i = phi i64 [ 0, %.lr.ph.i ], [ %indvars.iv.next.i, %21 ]
  %.01529.i = phi i32 [ 0, %.lr.ph.i ], [ %.217.ph.i, %21 ]
  %13 = getelementptr inbounds nuw ptr, ptr %11, i64 %indvars.iv.i
  %14 = load ptr, ptr %13, align 8, !tbaa !33
  %15 = load ptr, ptr %14, align 8, !tbaa !68
  %16 = icmp eq ptr %15, %2
  br i1 %16, label %17, label %21

17:                                               ; preds = %12
  %18 = icmp eq ptr %14, %0
  br i1 %18, label %lv_obj_get_index_by_type.exit, label %19

19:                                               ; preds = %17
  %20 = add i32 %.01529.i, 1
  br label %21

21:                                               ; preds = %19, %12
  %.217.ph.i = phi i32 [ %.01529.i, %12 ], [ %20, %19 ]
  %indvars.iv.next.i = add nuw nsw i64 %indvars.iv.i, 1
  %exitcond.not.i = icmp eq i64 %indvars.iv.next.i, %wide.trip.count.i
  br i1 %exitcond.not.i, label %lv_obj_get_index_by_type.exit, label %12, !llvm.loop !71

lv_obj_get_index_by_type.exit:                    ; preds = %17, %21
  %.0.i11 = phi i32 [ -1, %21 ], [ %.01529.i, %17 ]
  %22 = add nsw i32 %.0.i11, %1
  %23 = icmp slt i32 %22, 0
  br i1 %23, label %lv_obj_get_child_by_type.exit, label %.thread

lv_obj_get_index_by_type.exit.thread21:           ; preds = %lv_obj_get_parent.exit.i
  %24 = icmp slt i32 %1, 1
  br i1 %24, label %lv_obj_get_child_by_type.exit, label %.preheader.i19

lv_obj_get_index_by_type.exit.thread:             ; preds = %.preheader27.i
  %25 = add nsw i32 %1, -1
  %26 = icmp slt i32 %1, 1
  br i1 %26, label %lv_obj_get_child_by_type.exit, label %.thread

.preheader.i19:                                   ; preds = %lv_obj_get_index_by_type.exit.thread21, %.preheader.i19
  br label %.preheader.i19

.thread:                                          ; preds = %lv_obj_get_index_by_type.exit, %lv_obj_get_index_by_type.exit.thread
  %27 = phi i32 [ %25, %lv_obj_get_index_by_type.exit.thread ], [ %22, %lv_obj_get_index_by_type.exit ]
  %28 = getelementptr inbounds nuw i8, ptr %5, i64 16
  %29 = load ptr, ptr %28, align 8, !tbaa !37
  %30 = icmp eq ptr %29, null
  br i1 %30, label %lv_obj_get_child_by_type.exit, label %.preheader33.i

.preheader33.i:                                   ; preds = %.thread
  %31 = getelementptr inbounds nuw i8, ptr %29, i64 64
  %32 = load i16, ptr %31, align 8, !tbaa !38
  %.not48.i = icmp eq i16 %32, 0
  br i1 %.not48.i, label %lv_obj_get_child_by_type.exit, label %.lr.ph43.i

.lr.ph43.i:                                       ; preds = %.preheader33.i
  %33 = load ptr, ptr %29, align 8, !tbaa !42
  %wide.trip.count.i17 = zext i16 %32 to i64
  br label %34

34:                                               ; preds = %43, %.lr.ph43.i
  %indvars.iv52.i = phi i64 [ 0, %.lr.ph43.i ], [ %indvars.iv.next53.i, %43 ]
  %.02741.i = phi i32 [ %27, %.lr.ph43.i ], [ %.128.i, %43 ]
  %35 = getelementptr inbounds nuw ptr, ptr %33, i64 %indvars.iv52.i
  %36 = load ptr, ptr %35, align 8, !tbaa !33
  %37 = load ptr, ptr %36, align 8, !tbaa !68
  %38 = icmp eq ptr %37, %2
  br i1 %38, label %39, label %43

39:                                               ; preds = %34
  %40 = icmp eq i32 %.02741.i, 0
  br i1 %40, label %lv_obj_get_child_by_type.exit, label %41

41:                                               ; preds = %39
  %42 = add nsw i32 %.02741.i, -1
  br label %43

43:                                               ; preds = %41, %34
  %.128.i = phi i32 [ %42, %41 ], [ %.02741.i, %34 ]
  %indvars.iv.next53.i = add nuw nsw i64 %indvars.iv52.i, 1
  %exitcond.not.i18 = icmp eq i64 %indvars.iv.next53.i, %wide.trip.count.i17
  br i1 %exitcond.not.i18, label %lv_obj_get_child_by_type.exit, label %34, !llvm.loop !69

lv_obj_get_child_by_type.exit:                    ; preds = %43, %39, %lv_obj_get_index_by_type.exit.thread21, %lv_obj_get_index_by_type.exit.thread, %.preheader33.i, %.thread, %lv_obj_get_index_by_type.exit
  %.0 = phi ptr [ null, %lv_obj_get_index_by_type.exit ], [ null, %.thread ], [ null, %.preheader33.i ], [ null, %lv_obj_get_index_by_type.exit.thread ], [ null, %lv_obj_get_index_by_type.exit.thread21 ], [ %36, %39 ], [ null, %43 ]
  ret ptr %.0
}